target datalayout = "e-m:e-p270:32:32-p271:32:32-p272:64:64-i64:64-i128:128-f80:128-n8:16:32:64-S128"
target triple = "x86_64-pc-linux-gnu"

%struct.lean_object = type { i32, i32 }
%struct.lean_ctor_object = type { %struct.lean_object, [0 x ptr] }

; Function Attrs: inlinehint nounwind uwtable
define internal ptr @lean_to_ctor(ptr noundef %0) #0 {
  %2 = alloca ptr, align 8
  store ptr %0, ptr %2, align 8, !tbaa !8
  %3 = load ptr, ptr %2, align 8, !tbaa !8
  ret ptr %3
}

; Function Attrs: alwaysinline nounwind uwtable
define internal void @lean_dec_ref(ptr noundef %0) #1 {
  %2 = alloca ptr, align 8
  store ptr %0, ptr %2, align 8, !tbaa !8
  %3 = load ptr, ptr %2, align 8, !tbaa !8
  %4 = getelementptr inbounds nuw %struct.lean_object, ptr %3, i32 0, i32 0
  %5 = load i32, ptr %4, align 4, !tbaa !15
  %6 = icmp sgt i32 %5, 1
  %7 = zext i1 %6 to i32
  %8 = sext i32 %7 to i64
  %9 = call i64 @llvm.expect.i64(i64 %8, i64 1)
  %10 = icmp ne i64 %9, 0
  br i1 %10, label %11, label %16

11:                                               ; preds = %1
  %12 = load ptr, ptr %2, align 8, !tbaa !8
  %13 = getelementptr inbounds nuw %struct.lean_object, ptr %12, i32 0, i32 0
  %14 = load i32, ptr %13, align 4, !tbaa !15
  %15 = add i32 %14, -1
  store i32 %15, ptr %13, align 4, !tbaa !15
  br label %24

16:                                               ; preds = %1
  %17 = load ptr, ptr %2, align 8, !tbaa !8
  %18 = getelementptr inbounds nuw %struct.lean_object, ptr %17, i32 0, i32 0
  %19 = load i32, ptr %18, align 4, !tbaa !15
  %20 = icmp ne i32 %19, 0
  br i1 %20, label %21, label %23

21:                                               ; preds = %16
  %22 = load ptr, ptr %2, align 8, !tbaa !8
  call void @lean_dec_ref_cold(ptr noundef %22)
  br label %23

23:                                               ; preds = %21, %16
  br label %24

24:                                               ; preds = %23, %11
  ret void
}

; Function Attrs: inlinehint nounwind uwtable
define internal ptr @lean_ctor_obj_cptr(ptr noundef %0) #0 {
  %2 = alloca ptr, align 8
  store ptr %0, ptr %2, align 8, !tbaa !8
  %3 = load ptr, ptr %2, align 8, !tbaa !8
  %4 = call ptr @lean_to_ctor(ptr noundef %3)
  %5 = getelementptr inbounds nuw %struct.lean_ctor_object, ptr %4, i32 0, i32 1
  %6 = getelementptr inbounds [0 x ptr], ptr %5, i64 0, i64 0
  ret ptr %6
}

; Function Attrs: inlinehint nounwind uwtable
define internal zeroext i8 @lean_ptr_tag(ptr noundef %0) #0 {
  %2 = alloca ptr, align 8
  store ptr %0, ptr %2, align 8, !tbaa !8
  %3 = load ptr, ptr %2, align 8, !tbaa !8
  %4 = getelementptr inbounds nuw %struct.lean_object, ptr %3, i32 0, i32 1
  %5 = load i32, ptr %4, align 4
  %6 = lshr i32 %5, 24
  %7 = trunc i32 %6 to i8
  ret i8 %7
}

; Function Attrs: inlinehint nounwind uwtable
define internal i64 @lean_unbox(ptr noundef %0) #0 {
  %2 = alloca ptr, align 8
  store ptr %0, ptr %2, align 8, !tbaa !8
  %3 = load ptr, ptr %2, align 8, !tbaa !8
  %4 = ptrtoint ptr %3 to i64
  %5 = lshr i64 %4, 1
  ret i64 %5
}

; Function Attrs: alwaysinline nounwind uwtable
define internal zeroext i1 @lean_is_scalar(ptr noundef %0) #1 {
  %2 = alloca ptr, align 8
  store ptr %0, ptr %2, align 8, !tbaa !8
  %3 = load ptr, ptr %2, align 8, !tbaa !8
  %4 = ptrtoint ptr %3 to i64
  %5 = and i64 %4, 1
  %6 = icmp eq i64 %5, 1
  ret i1 %6
}

; Function Attrs: alwaysinline nounwind uwtable
define internal void @lean_dec(ptr noundef %0) #1 {
  %2 = alloca ptr, align 8
  store ptr %0, ptr %2, align 8, !tbaa !8
  %3 = load ptr, ptr %2, align 8, !tbaa !8
  %4 = call zeroext i1 @lean_is_scalar(ptr noundef %3)
  br i1 %4, label %7, label %5

5:                                                ; preds = %1
  %6 = load ptr, ptr %2, align 8, !tbaa !8
  call void @lean_dec_ref(ptr noundef %6)
  br label %7

7:                                                ; preds = %5, %1
  ret void
}

; Function Attrs: inlinehint nounwind uwtable
define internal ptr @lean_ctor_get(ptr noundef %0, i32 noundef %1) #0 {
  %3 = alloca ptr, align 8
  %4 = alloca i32, align 4
  store ptr %0, ptr %3, align 8, !tbaa !8
  store i32 %1, ptr %4, align 4, !tbaa !13
  %5 = load ptr, ptr %3, align 8, !tbaa !8
  %6 = call ptr @lean_ctor_obj_cptr(ptr noundef %5)
  %7 = load i32, ptr %4, align 4, !tbaa !13
  %8 = zext i32 %7 to i64
  %9 = getelementptr inbounds nuw ptr, ptr %6, i64 %8
  %10 = load ptr, ptr %9, align 8, !tbaa !8
  ret ptr %10
}

; Function Attrs: inlinehint nounwind uwtable
define internal i32 @lean_obj_tag(ptr noundef %0) #0 {
  %2 = alloca i32, align 4
  %3 = alloca ptr, align 8
  store ptr %0, ptr %3, align 8, !tbaa !8
  %4 = load ptr, ptr %3, align 8, !tbaa !8
  %5 = call zeroext i1 @lean_is_scalar(ptr noundef %4)
  br i1 %5, label %6, label %10

6:                                                ; preds = %1
  %7 = load ptr, ptr %3, align 8, !tbaa !8
  %8 = call i64 @lean_unbox(ptr noundef %7)
  %9 = trunc i64 %8 to i32
  store i32 %9, ptr %2, align 4
  br label %14

10:                                               ; preds = %1
  %11 = load ptr, ptr %3, align 8, !tbaa !8
  %12 = call zeroext i8 @lean_ptr_tag(ptr noundef %11)
  %13 = zext i8 %12 to i32
  store i32 %13, ptr %2, align 4
  br label %14

14:                                               ; preds = %10, %6
  %15 = load i32, ptr %2, align 4
  ret i32 %15
}

; Function Attrs: nounwind uwtable
define zeroext i8 @l_Lean_Expr_hasAnyFVar_visit___at_Lean_Meta_MatcherApp_inferMatchType___spec__1(ptr noundef %0, ptr noundef %1) #2 {
  %3 = alloca i8, align 1
  %4 = alloca ptr, align 8
  %5 = alloca ptr, align 8
  %6 = alloca i8, align 1
  %7 = alloca i8, align 1
  %8 = alloca i32, align 4
  %9 = alloca ptr, align 8
  %10 = alloca ptr, align 8
  %11 = alloca i8, align 1
  %12 = alloca ptr, align 8
  %13 = alloca ptr, align 8
  %14 = alloca i8, align 1
  %15 = alloca i8, align 1
  %16 = alloca ptr, align 8
  %17 = alloca ptr, align 8
  %18 = alloca i8, align 1
  %19 = alloca i8, align 1
  %20 = alloca ptr, align 8
  %21 = alloca ptr, align 8
  %22 = alloca i8, align 1
  %23 = alloca i8, align 1
  %24 = alloca ptr, align 8
  %25 = alloca ptr, align 8
  %26 = alloca ptr, align 8
  %27 = alloca i8, align 1
  %28 = alloca i8, align 1
  %29 = alloca i8, align 1
  %30 = alloca i8, align 1
  %31 = alloca ptr, align 8
  %32 = alloca ptr, align 8
  %33 = alloca i8, align 1
  store ptr %0, ptr %4, align 8, !tbaa !8
  store ptr %1, ptr %5, align 8, !tbaa !8
  br label %34

34:                                               ; preds = %141, %2
  call void @llvm.lifetime.start.p0(i64 1, ptr %6) #7
  %35 = load ptr, ptr %5, align 8, !tbaa !8
  %36 = call zeroext i8 @l_Lean_Expr_hasFVar(ptr noundef %35)
  store i8 %36, ptr %6, align 1, !tbaa !12
  %37 = load i8, ptr %6, align 1, !tbaa !12
  %38 = zext i8 %37 to i32
  %39 = icmp eq i32 %38, 0
  br i1 %39, label %40, label %42

40:                                               ; preds = %34
  call void @llvm.lifetime.start.p0(i64 1, ptr %7) #7
  store i8 0, ptr %7, align 1, !tbaa !12
  %41 = load i8, ptr %7, align 1, !tbaa !12
  store i8 %41, ptr %3, align 1
  store i32 1, ptr %8, align 4
  call void @llvm.lifetime.end.p0(i64 1, ptr %7) #7
  br label %141

42:                                               ; preds = %34
  %43 = load ptr, ptr %5, align 8, !tbaa !8
  %44 = call i32 @lean_obj_tag(ptr noundef %43)
  switch i32 %44, label %139 [
    i32 1, label %45
    i32 5, label %55
    i32 6, label %71
    i32 7, label %87
    i32 8, label %103
    i32 10, label %131
    i32 11, label %135
  ]

45:                                               ; preds = %42
  call void @llvm.lifetime.start.p0(i64 8, ptr %9) #7
  call void @llvm.lifetime.start.p0(i64 8, ptr %10) #7
  call void @llvm.lifetime.start.p0(i64 1, ptr %11) #7
  %46 = load ptr, ptr %5, align 8, !tbaa !8
  %47 = call ptr @lean_ctor_get(ptr noundef %46, i32 noundef 0)
  store ptr %47, ptr %9, align 8, !tbaa !8
  %48 = load ptr, ptr %4, align 8, !tbaa !8
  %49 = call ptr @l_Lean_Expr_fvarId_x21(ptr noundef %48)
  store ptr %49, ptr %10, align 8, !tbaa !8
  %50 = load ptr, ptr %9, align 8, !tbaa !8
  %51 = load ptr, ptr %10, align 8, !tbaa !8
  %52 = call zeroext i8 @lean_name_eq(ptr noundef %50, ptr noundef %51)
  store i8 %52, ptr %11, align 1, !tbaa !12
  %53 = load ptr, ptr %10, align 8, !tbaa !8
  call void @lean_dec(ptr noundef %53)
  %54 = load i8, ptr %11, align 1, !tbaa !12
  store i8 %54, ptr %3, align 1
  store i32 1, ptr %8, align 4
  call void @llvm.lifetime.end.p0(i64 1, ptr %11) #7
  call void @llvm.lifetime.end.p0(i64 8, ptr %10) #7
  call void @llvm.lifetime.end.p0(i64 8, ptr %9) #7
  br label %141

55:                                               ; preds = %42
  call void @llvm.lifetime.start.p0(i64 8, ptr %12) #7
  call void @llvm.lifetime.start.p0(i64 8, ptr %13) #7
  call void @llvm.lifetime.start.p0(i64 1, ptr %14) #7
  %56 = load ptr, ptr %5, align 8, !tbaa !8
  %57 = call ptr @lean_ctor_get(ptr noundef %56, i32 noundef 0)
  store ptr %57, ptr %12, align 8, !tbaa !8
  %58 = load ptr, ptr %5, align 8, !tbaa !8
  %59 = call ptr @lean_ctor_get(ptr noundef %58, i32 noundef 1)
  store ptr %59, ptr %13, align 8, !tbaa !8
  %60 = load ptr, ptr %4, align 8, !tbaa !8
  %61 = load ptr, ptr %12, align 8, !tbaa !8
  %62 = call zeroext i8 @l_Lean_Expr_hasAnyFVar_visit___at_Lean_Meta_MatcherApp_inferMatchType___spec__1(ptr noundef %60, ptr noundef %61)
  store i8 %62, ptr %14, align 1, !tbaa !12
  %63 = load i8, ptr %14, align 1, !tbaa !12
  %64 = zext i8 %63 to i32
  %65 = icmp eq i32 %64, 0
  br i1 %65, label %66, label %68

66:                                               ; preds = %55
  %67 = load ptr, ptr %13, align 8, !tbaa !8
  store ptr %67, ptr %5, align 8, !tbaa !8
  store i32 2, ptr %8, align 4
  br label %70

68:                                               ; preds = %55
  call void @llvm.lifetime.start.p0(i64 1, ptr %15) #7
  store i8 1, ptr %15, align 1, !tbaa !12
  %69 = load i8, ptr %15, align 1, !tbaa !12
  store i8 %69, ptr %3, align 1
  store i32 1, ptr %8, align 4
  call void @llvm.lifetime.end.p0(i64 1, ptr %15) #7
  br label %70

70:                                               ; preds = %68, %66
  call void @llvm.lifetime.end.p0(i64 1, ptr %14) #7
  call void @llvm.lifetime.end.p0(i64 8, ptr %13) #7
  call void @llvm.lifetime.end.p0(i64 8, ptr %12) #7
  br label %141

71:                                               ; preds = %42
  call void @llvm.lifetime.start.p0(i64 8, ptr %16) #7
  call void @llvm.lifetime.start.p0(i64 8, ptr %17) #7
  call void @llvm.lifetime.start.p0(i64 1, ptr %18) #7
  %72 = load ptr, ptr %5, align 8, !tbaa !8
  %73 = call ptr @lean_ctor_get(ptr noundef %72, i32 noundef 1)
  store ptr %73, ptr %16, align 8, !tbaa !8
  %74 = load ptr, ptr %5, align 8, !tbaa !8
  %75 = call ptr @lean_ctor_get(ptr noundef %74, i32 noundef 2)
  store ptr %75, ptr %17, align 8, !tbaa !8
  %76 = load ptr, ptr %4, align 8, !tbaa !8
  %77 = load ptr, ptr %16, align 8, !tbaa !8
  %78 = call zeroext i8 @l_Lean_Expr_hasAnyFVar_visit___at_Lean_Meta_MatcherApp_inferMatchType___spec__1(ptr noundef %76, ptr noundef %77)
  store i8 %78, ptr %18, align 1, !tbaa !12
  %79 = load i8, ptr %18, align 1, !tbaa !12
  %80 = zext i8 %79 to i32
  %81 = icmp eq i32 %80, 0
  br i1 %81, label %82, label %84

82:                                               ; preds = %71
  %83 = load ptr, ptr %17, align 8, !tbaa !8
  store ptr %83, ptr %5, align 8, !tbaa !8
  store i32 2, ptr %8, align 4
  br label %86

84:                                               ; preds = %71
  call void @llvm.lifetime.start.p0(i64 1, ptr %19) #7
  store i8 1, ptr %19, align 1, !tbaa !12
  %85 = load i8, ptr %19, align 1, !tbaa !12
  store i8 %85, ptr %3, align 1
  store i32 1, ptr %8, align 4
  call void @llvm.lifetime.end.p0(i64 1, ptr %19) #7
  br label %86

86:                                               ; preds = %84, %82
  call void @llvm.lifetime.end.p0(i64 1, ptr %18) #7
  call void @llvm.lifetime.end.p0(i64 8, ptr %17) #7
  call void @llvm.lifetime.end.p0(i64 8, ptr %16) #7
  br label %141

87:                                               ; preds = %42
  call void @llvm.lifetime.start.p0(i64 8, ptr %20) #7
  call void @llvm.lifetime.start.p0(i64 8, ptr %21) #7
  call void @llvm.lifetime.start.p0(i64 1, ptr %22) #7
  %88 = load ptr, ptr %5, align 8, !tbaa !8
  %89 = call ptr @lean_ctor_get(ptr noundef %88, i32 noundef 1)
  store ptr %89, ptr %20, align 8, !tbaa !8
  %90 = load ptr, ptr %5, align 8, !tbaa !8
  %91 = call ptr @lean_ctor_get(ptr noundef %90, i32 noundef 2)
  store ptr %91, ptr %21, align 8, !tbaa !8
  %92 = load ptr, ptr %4, align 8, !tbaa !8
  %93 = load ptr, ptr %20, align 8, !tbaa !8
  %94 = call zeroext i8 @l_Lean_Expr_hasAnyFVar_visit___at_Lean_Meta_MatcherApp_inferMatchType___spec__1(ptr noundef %92, ptr noundef %93)
  store i8 %94, ptr %22, align 1, !tbaa !12
  %95 = load i8, ptr %22, align 1, !tbaa !12
  %96 = zext i8 %95 to i32
  %97 = icmp eq i32 %96, 0
  br i1 %97, label %98, label %100

98:                                               ; preds = %87
  %99 = load ptr, ptr %21, align 8, !tbaa !8
  store ptr %99, ptr %5, align 8, !tbaa !8
  store i32 2, ptr %8, align 4
  br label %102

100:                                              ; preds = %87
  call void @llvm.lifetime.start.p0(i64 1, ptr %23) #7
  store i8 1, ptr %23, align 1, !tbaa !12
  %101 = load i8, ptr %23, align 1, !tbaa !12
  store i8 %101, ptr %3, align 1
  store i32 1, ptr %8, align 4
  call void @llvm.lifetime.end.p0(i64 1, ptr %23) #7
  br label %102

102:                                              ; preds = %100, %98
  call void @llvm.lifetime.end.p0(i64 1, ptr %22) #7
  call void @llvm.lifetime.end.p0(i64 8, ptr %21) #7
  call void @llvm.lifetime.end.p0(i64 8, ptr %20) #7
  br label %141

103:                                              ; preds = %42
  call void @llvm.lifetime.start.p0(i64 8, ptr %24) #7
  call void @llvm.lifetime.start.p0(i64 8, ptr %25) #7
  call void @llvm.lifetime.start.p0(i64 8, ptr %26) #7
  call void @llvm.lifetime.start.p0(i64 1, ptr %27) #7
  %104 = load ptr, ptr %5, align 8, !tbaa !8
  %105 = call ptr @lean_ctor_get(ptr noundef %104, i32 noundef 1)
  store ptr %105, ptr %24, align 8, !tbaa !8
  %106 = load ptr, ptr %5, align 8, !tbaa !8
  %107 = call ptr @lean_ctor_get(ptr noundef %106, i32 noundef 2)
  store ptr %107, ptr %25, align 8, !tbaa !8
  %108 = load ptr, ptr %5, align 8, !tbaa !8
  %109 = call ptr @lean_ctor_get(ptr noundef %108, i32 noundef 3)
  store ptr %109, ptr %26, align 8, !tbaa !8
  %110 = load ptr, ptr %4, align 8, !tbaa !8
  %111 = load ptr, ptr %24, align 8, !tbaa !8
  %112 = call zeroext i8 @l_Lean_Expr_hasAnyFVar_visit___at_Lean_Meta_MatcherApp_inferMatchType___spec__1(ptr noundef %110, ptr noundef %111)
  store i8 %112, ptr %27, align 1, !tbaa !12
  %113 = load i8, ptr %27, align 1, !tbaa !12
  %114 = zext i8 %113 to i32
  %115 = icmp eq i32 %114, 0
  br i1 %115, label %116, label %128

116:                                              ; preds = %103
  call void @llvm.lifetime.start.p0(i64 1, ptr %28) #7
  %117 = load ptr, ptr %4, align 8, !tbaa !8
  %118 = load ptr, ptr %25, align 8, !tbaa !8
  %119 = call zeroext i8 @l_Lean_Expr_hasAnyFVar_visit___at_Lean_Meta_MatcherApp_inferMatchType___spec__1(ptr noundef %117, ptr noundef %118)
  store i8 %119, ptr %28, align 1, !tbaa !12
  %120 = load i8, ptr %28, align 1, !tbaa !12
  %121 = zext i8 %120 to i32
  %122 = icmp eq i32 %121, 0
  br i1 %122, label %123, label %125

123:                                              ; preds = %116
  %124 = load ptr, ptr %26, align 8, !tbaa !8
  store ptr %124, ptr %5, align 8, !tbaa !8
  store i32 2, ptr %8, align 4
  br label %127

125:                                              ; preds = %116
  call void @llvm.lifetime.start.p0(i64 1, ptr %29) #7
  store i8 1, ptr %29, align 1, !tbaa !12
  %126 = load i8, ptr %29, align 1, !tbaa !12
  store i8 %126, ptr %3, align 1
  store i32 1, ptr %8, align 4
  call void @llvm.lifetime.end.p0(i64 1, ptr %29) #7
  br label %127

127:                                              ; preds = %125, %123
  call void @llvm.lifetime.end.p0(i64 1, ptr %28) #7
  br label %130

128:                                              ; preds = %103
  call void @llvm.lifetime.start.p0(i64 1, ptr %30) #7
  store i8 1, ptr %30, align 1, !tbaa !12
  %129 = load i8, ptr %30, align 1, !tbaa !12
  store i8 %129, ptr %3, align 1
  store i32 1, ptr %8, align 4
  call void @llvm.lifetime.end.p0(i64 1, ptr %30) #7
  br label %130

130:                                              ; preds = %128, %127
  call void @llvm.lifetime.end.p0(i64 1, ptr %27) #7
  call void @llvm.lifetime.end.p0(i64 8, ptr %26) #7
  call void @llvm.lifetime.end.p0(i64 8, ptr %25) #7
  call void @llvm.lifetime.end.p0(i64 8, ptr %24) #7
  br label %141

131:                                              ; preds = %42
  call void @llvm.lifetime.start.p0(i64 8, ptr %31) #7
  %132 = load ptr, ptr %5, align 8, !tbaa !8
  %133 = call ptr @lean_ctor_get(ptr noundef %132, i32 noundef 1)
  store ptr %133, ptr %31, align 8, !tbaa !8
  %134 = load ptr, ptr %31, align 8, !tbaa !8
  store ptr %134, ptr %5, align 8, !tbaa !8
  store i32 2, ptr %8, align 4
  call void @llvm.lifetime.end.p0(i64 8, ptr %31) #7
  br label %141

135:                                              ; preds = %42
  call void @llvm.lifetime.start.p0(i64 8, ptr %32) #7
  %136 = load ptr, ptr %5, align 8, !tbaa !8
  %137 = call ptr @lean_ctor_get(ptr noundef %136, i32 noundef 2)
  store ptr %137, ptr %32, align 8, !tbaa !8
  %138 = load ptr, ptr %32, align 8, !tbaa !8
  store ptr %138, ptr %5, align 8, !tbaa !8
  store i32 2, ptr %8, align 4
  call void @llvm.lifetime.end.p0(i64 8, ptr %32) #7
  br label %141

139:                                              ; preds = %42
  call void @llvm.lifetime.start.p0(i64 1, ptr %33) #7
  store i8 0, ptr %33, align 1, !tbaa !12
  %140 = load i8, ptr %33, align 1, !tbaa !12
  store i8 %140, ptr %3, align 1
  store i32 1, ptr %8, align 4
  call void @llvm.lifetime.end.p0(i64 1, ptr %33) #7
  br label %141

141:                                              ; preds = %139, %135, %131, %130, %102, %86, %70, %45, %40
  call void @llvm.lifetime.end.p0(i64 1, ptr %6) #7
  %142 = load i32, ptr %8, align 4
  switch i32 %142, label %145 [
    i32 1, label %143
    i32 2, label %34
  ]

143:                                              ; preds = %141
  %144 = load i8, ptr %3, align 1
  ret i8 %144

145:                                              ; preds = %141
  unreachable
}