; Function Attrs: nounwind uwtable
define zeroext i8 @l_Lean_Expr_hasAnyFVar_visit___at_Lean_Meta_MatcherApp_inferMatchType___spec__1(ptr noundef %0, ptr noundef %1) local_unnamed_addr #1 {
  %3 = tail call zeroext i8 @l_Lean_Expr_hasFVar(ptr noundef %1) #4
  %4 = icmp eq i8 %3, 0
  br i1 %4, label %lean_dec.exit.thread, label %.lr.ph

.lr.ph:                                           ; preds = %2, %lean_dec.exit
  %.04990 = phi ptr [ %.150, %lean_dec.exit ], [ %1, %2 ]
  %5 = ptrtoint ptr %.04990 to i64
  %6 = and i64 %5, 1
  %.not.i71 = icmp eq i64 %6, 0
  br i1 %.not.i71, label %10, label %7

7:                                                ; preds = %.lr.ph
  %8 = lshr i64 %5, 1
  %9 = trunc i64 %8 to i32
  br label %lean_obj_tag.exit

10:                                               ; preds = %.lr.ph
  %11 = getelementptr i8, ptr %.04990, i64 4
  %.val.i = load i32, ptr %11, align 4
  %12 = lshr i32 %.val.i, 24
  br label %lean_obj_tag.exit

lean_obj_tag.exit:                                ; preds = %7, %10
  %.0.i = phi i32 [ %9, %7 ], [ %12, %10 ]
  switch i32 %.0.i, label %lean_dec.exit.thread [
    i32 1, label %13
    i32 5, label %27
    i32 6, label %34
    i32 7, label %41
    i32 8, label %48
    i32 10, label %lean_dec.exit.sink.split
    i32 11, label %60
  ]

13:                                               ; preds = %lean_obj_tag.exit
  %14 = getelementptr inbounds nuw i8, ptr %.04990, i64 8
  %15 = load ptr, ptr %14, align 8, !tbaa !4
  %16 = tail call ptr @l_Lean_Expr_fvarId_x21(ptr noundef %0) #4
  %17 = tail call zeroext i8 @lean_name_eq(ptr noundef %15, ptr noundef %16) #4
  %18 = ptrtoint ptr %16 to i64
  %19 = and i64 %18, 1
  %.not = icmp eq i64 %19, 0
  br i1 %.not, label %20, label %lean_dec.exit.thread

20:                                               ; preds = %13
  %21 = load i32, ptr %16, align 4, !tbaa !8
  %22 = icmp sgt i32 %21, 1
  br i1 %22, label %23, label %25, !prof !11

23:                                               ; preds = %20
  %24 = add nsw i32 %21, -1
  store i32 %24, ptr %16, align 4, !tbaa !8
  br label %lean_dec.exit.thread

25:                                               ; preds = %20
  %.not.i = icmp eq i32 %21, 0
  br i1 %.not.i, label %lean_dec.exit.thread, label %26

26:                                               ; preds = %25
  tail call void @lean_dec_ref_cold(ptr noundef nonnull %16) #4
  br label %lean_dec.exit.thread

27:                                               ; preds = %lean_obj_tag.exit
  %28 = getelementptr inbounds nuw i8, ptr %.04990, i64 8
  %29 = load ptr, ptr %28, align 8, !tbaa !4
  %30 = getelementptr inbounds nuw i8, ptr %.04990, i64 16
  %31 = load ptr, ptr %30, align 8, !tbaa !4
  %32 = tail call zeroext i8 @l_Lean_Expr_hasAnyFVar_visit___at_Lean_Meta_MatcherApp_inferMatchType___spec__1(ptr noundef %0, ptr noundef %29)
  %33 = icmp eq i8 %32, 0
  br i1 %33, label %lean_dec.exit, label %lean_dec.exit.thread

34:                                               ; preds = %lean_obj_tag.exit
  %35 = getelementptr inbounds nuw i8, ptr %.04990, i64 16
  %36 = load ptr, ptr %35, align 8, !tbaa !4
  %37 = getelementptr inbounds nuw i8, ptr %.04990, i64 24
  %38 = load ptr, ptr %37, align 8, !tbaa !4
  %39 = tail call zeroext i8 @l_Lean_Expr_hasAnyFVar_visit___at_Lean_Meta_MatcherApp_inferMatchType___spec__1(ptr noundef %0, ptr noundef %36)
  %40 = icmp eq i8 %39, 0
  br i1 %40, label %lean_dec.exit, label %lean_dec.exit.thread

41:                                               ; preds = %lean_obj_tag.exit
  %42 = getelementptr inbounds nuw i8, ptr %.04990, i64 16
  %43 = load ptr, ptr %42, align 8, !tbaa !4
  %44 = getelementptr inbounds nuw i8, ptr %.04990, i64 24
  %45 = load ptr, ptr %44, align 8, !tbaa !4
  %46 = tail call zeroext i8 @l_Lean_Expr_hasAnyFVar_visit___at_Lean_Meta_MatcherApp_inferMatchType___spec__1(ptr noundef %0, ptr noundef %43)
  %47 = icmp eq i8 %46, 0
  br i1 %47, label %lean_dec.exit, label %lean_dec.exit.thread

48:                                               ; preds = %lean_obj_tag.exit
  %49 = getelementptr inbounds nuw i8, ptr %.04990, i64 16
  %50 = load ptr, ptr %49, align 8, !tbaa !4
  %51 = getelementptr inbounds nuw i8, ptr %.04990, i64 24
  %52 = load ptr, ptr %51, align 8, !tbaa !4
  %53 = getelementptr inbounds nuw i8, ptr %.04990, i64 32
  %54 = load ptr, ptr %53, align 8, !tbaa !4
  %55 = tail call zeroext i8 @l_Lean_Expr_hasAnyFVar_visit___at_Lean_Meta_MatcherApp_inferMatchType___spec__1(ptr noundef %0, ptr noundef %50)
  %56 = icmp eq i8 %55, 0
  br i1 %56, label %57, label %lean_dec.exit.thread

57:                                               ; preds = %48
  %58 = tail call zeroext i8 @l_Lean_Expr_hasAnyFVar_visit___at_Lean_Meta_MatcherApp_inferMatchType___spec__1(ptr noundef %0, ptr noundef %52)
  %59 = icmp eq i8 %58, 0
  br i1 %59, label %lean_dec.exit, label %lean_dec.exit.thread

60:                                               ; preds = %lean_obj_tag.exit
  br label %lean_dec.exit.sink.split

lean_dec.exit.sink.split:                         ; preds = %lean_obj_tag.exit, %60
  %.sink88 = phi i64 [ 24, %60 ], [ 16, %lean_obj_tag.exit ]
  %61 = getelementptr inbounds nuw i8, ptr %.04990, i64 %.sink88
  %62 = load ptr, ptr %61, align 8, !tbaa !4
  br label %lean_dec.exit

lean_dec.exit:                                    ; preds = %lean_dec.exit.sink.split, %57, %27, %34, %41
  %.150 = phi ptr [ %45, %41 ], [ %38, %34 ], [ %31, %27 ], [ %54, %57 ], [ %62, %lean_dec.exit.sink.split ]
  %63 = tail call zeroext i8 @l_Lean_Expr_hasFVar(ptr noundef %.150) #4
  %64 = icmp eq i8 %63, 0
  br i1 %64, label %lean_dec.exit.thread, label %.lr.ph

lean_dec.exit.thread:                             ; preds = %lean_dec.exit, %48, %lean_obj_tag.exit, %41, %34, %27, %57, %2, %13, %23, %25, %26
  %.177 = phi i8 [ %17, %13 ], [ %17, %23 ], [ %17, %25 ], [ %17, %26 ], [ 0, %2 ], [ 1, %57 ], [ 1, %27 ], [ 1, %34 ], [ 1, %41 ], [ 0, %lean_obj_tag.exit ], [ 1, %48 ], [ 0, %lean_dec.exit ]
  ret i8 %.177
}